target datalayout = "e-m:e-p270:32:32-p271:32:32-p272:64:64-i64:64-i128:128-f80:128-n8:16:32:64-S128"
target triple = "x86_64-unknown-linux-gnu"

%class.anon.321 = type { i8 }

; Function Attrs: mustprogress nounwind uwtable
define internal noundef ptr @"_ZZN4node6crypto13DiffieHellman12GetGeneratorERKN2v820FunctionCallbackInfoINS2_5ValueEEEENK3$_0clEPK5dh_st"(ptr noundef nonnull align 1 dereferenceable(1) %this, ptr noundef %dh) #4 align 2 {
entry:
  %this.addr = alloca ptr, align 8
  %dh.addr = alloca ptr, align 8
  %g = alloca ptr, align 8
  store ptr %this, ptr %this.addr, align 8
  store ptr %dh, ptr %dh.addr, align 8
  %0 = load ptr, ptr %dh.addr, align 8
  call void @DH_get0_pqg(ptr noundef %0, ptr noundef null, ptr noundef null, ptr noundef %g)
  %1 = load ptr, ptr %g, align 8
  ret ptr %1
}

; Function Attrs: mustprogress nounwind uwtable
define internal noundef ptr @"_ZZN4node6crypto13DiffieHellman12GetGeneratorERKN2v820FunctionCallbackInfoINS2_5ValueEEEEN3$_08__invokeEPK5dh_st"(ptr noundef %dh) #4 align 2 {
entry:
  %dh.addr = alloca ptr, align 8
  %unused.capture = alloca %class.anon.321, align 1
  store ptr %dh, ptr %dh.addr, align 8
  %0 = load ptr, ptr %dh.addr, align 8
  %call = call noundef ptr @"_ZZN4node6crypto13DiffieHellman12GetGeneratorERKN2v820FunctionCallbackInfoINS2_5ValueEEEENK3$_0clEPK5dh_st"(ptr noundef nonnull align 1 dereferenceable(1) %unused.capture, ptr noundef %0)
  ret ptr %call
}