; Function Attrs: mustprogress nounwind uwtable
define internal noundef ptr @"_ZZN4node6crypto13DiffieHellman12GetGeneratorERKN2v820FunctionCallbackInfoINS2_5ValueEEEEN3$_08__invokeEPK5dh_st"(ptr noundef %dh) #3 align 2 {
entry:
  %g.i = alloca ptr, align 8
  call void @llvm.lifetime.start.p0(i64 8, ptr nonnull %g.i)
  call void @DH_get0_pqg(ptr noundef %dh, ptr noundef null, ptr noundef null, ptr noundef nonnull %g.i) #18
  %0 = load ptr, ptr %g.i, align 8
  call void @llvm.lifetime.end.p0(i64 8, ptr nonnull %g.i)
  ret ptr %0
}